; Function Attrs: mustprogress noinline uwtable
define dso_local noundef nonnull ptr @_ZN4Luau15emplaceTypePackINS_9Unifiable5BoundIPKNS_11TypePackVarEEEJRS5_EEEPT_PS3_DpOT0_(ptr noundef %0, ptr noundef nonnull readonly align 8 captures(none) dereferenceable(8) %1) local_unnamed_addr #14 {
  %3 = load i32, ptr %0, align 8, !tbaa !49
  %4 = sext i32 %3 to i64
  %5 = getelementptr inbounds [8 x ptr], ptr @_ZN4Luau7VariantIJNS_9Unifiable5BoundIPKNS_11TypePackVarEEENS1_5ErrorIS5_EENS_12FreeTypePackENS_15GenericTypePackENS_8TypePackENS_16VariadicTypePackENS_15BlockedTypePackENS_28TypeFunctionInstanceTypePackEEE9tableDtorE, i64 0, i64 %4
  %6 = load ptr, ptr %5, align 8, !tbaa !51
  %7 = getelementptr inbounds nuw i8, ptr %0, i64 8
  tail call void %6(ptr noundef nonnull %7)
  store i32 0, ptr %0, align 8, !tbaa !49
  %8 = load ptr, ptr %1, align 8, !tbaa !76
  store ptr %8, ptr %7, align 8, !tbaa !88
  ret ptr %7
}